; Function Attrs: mustprogress nounwind uwtable
define internal void @_ZN12_GLOBAL__N_120HQTransportByteEventD2Ev(ptr noundef nonnull align 8 dereferenceable(80) %this) unnamed_addr #7 align 2 personality ptr @__gxx_personality_v0 {
entry:
  store ptr getelementptr inbounds ({ [6 x ptr] }, ptr @_ZTVN8proxygen20TransactionByteEventE, i64 0, i32 0, i64 2), ptr %this, align 8
  %txn_.i = getelementptr inbounds i8, ptr %this, i64 64
  %0 = load ptr, ptr %txn_.i, align 8
  invoke void @_ZN8proxygen15HTTPTransaction26decrementPendingByteEventsEv(ptr noundef nonnull align 8 dereferenceable(912) %0)
          to label %invoke.cont.i unwind label %terminate.lpad.i

invoke.cont.i:                                    ; preds = %entry
  store ptr getelementptr inbounds ({ [6 x ptr] }, ptr @_ZTVN8proxygen9ByteEventE, i64 0, i32 0, i64 2), ptr %this, align 8
  %_M_manager.i.i.i.i = getelementptr inbounds i8, ptr %this, i64 48
  %1 = load ptr, ptr %_M_manager.i.i.i.i, align 8
  %tobool.not.i.i.i.i = icmp eq ptr %1, null
  br i1 %tobool.not.i.i.i.i, label %_ZN8proxygen20TransactionByteEventD2Ev.exit, label %if.then.i.i.i.i

if.then.i.i.i.i:                                  ; preds = %invoke.cont.i
  %callback_.i.i = getelementptr inbounds i8, ptr %this, i64 32
  %call.i.i.i.i = invoke noundef zeroext i1 %1(ptr noundef nonnull align 8 dereferenceable(16) %callback_.i.i, ptr noundef nonnull align 8 dereferenceable(16) %callback_.i.i, i32 noundef 3)
          to label %_ZN8proxygen20TransactionByteEventD2Ev.exit unwind label %terminate.lpad.i.i.i.i

terminate.lpad.i.i.i.i:                           ; preds = %if.then.i.i.i.i
  %2 = landingpad { ptr, i32 }
          catch ptr null
  %3 = extractvalue { ptr, i32 } %2, 0
  tail call void @__clang_call_terminate(ptr %3) #16
  unreachable

terminate.lpad.i:                                 ; preds = %entry
  %4 = landingpad { ptr, i32 }
          catch ptr null
  %5 = extractvalue { ptr, i32 } %4, 0
  tail call void @__clang_call_terminate(ptr %5) #16
  unreachable

_ZN8proxygen20TransactionByteEventD2Ev.exit:      ; preds = %invoke.cont.i, %if.then.i.i.i.i
  ret void
}